; Function Attrs: inlinehint mustprogress uwtable
define internal fastcc void @_ZL10_Py_DECREFP7_object(ptr noundef %0) unnamed_addr #8 {
  %2 = load i64, ptr %0, align 8
  %3 = add nsw i64 %2, -1
  store i64 %3, ptr %0, align 8
  %.not = icmp eq i64 %3, 0
  br i1 %.not, label %4, label %5

4:                                                ; preds = %1
  tail call void @_Py_Dealloc(ptr noundef nonnull %0)
  br label %5

5:                                                ; preds = %1, %4
  ret void
}